target datalayout = "e-m:e-p270:32:32-p271:32:32-p272:64:64-i64:64-i128:128-f80:128-n8:16:32:64-S128"
target triple = "x86_64-pc-linux-gnu"

%"struct.base::WorkingSetKBytes" = type { i64, i64, i64 }

; Function Attrs: mustprogress uwtable
define noundef zeroext i1 @_ZNK4base14ProcessMetrics19GetWorkingSetKBytesEPNS_16WorkingSetKBytesE(ptr noundef nonnull align 8 dereferenceable(44) %0, ptr noundef %1) #0 align 2 {
  %3 = alloca ptr, align 8
  %4 = alloca ptr, align 8
  store ptr %0, ptr %3, align 8, !tbaa !7
  store ptr %1, ptr %4, align 8, !tbaa !29
  %5 = load ptr, ptr %3, align 8
  %6 = load ptr, ptr %4, align 8, !tbaa !29
  %7 = call noundef zeroext i1 @_ZNK4base14ProcessMetrics24GetWorkingSetKBytesStatmEPNS_16WorkingSetKBytesE(ptr noundef nonnull align 8 dereferenceable(44) %5, ptr noundef %6)
  ret i1 %7
}

; Function Attrs: mustprogress nounwind uwtable
define linkonce_odr void @_ZN4base16WorkingSetKBytesC2Ev(ptr noundef nonnull align 8 dereferenceable(24) %0) unnamed_addr #1 comdat align 2 {
  %2 = alloca ptr, align 8
  store ptr %0, ptr %2, align 8, !tbaa !29
  %3 = load ptr, ptr %2, align 8
  %4 = getelementptr inbounds nuw %"struct.base::WorkingSetKBytes", ptr %3, i32 0, i32 0
  store i64 0, ptr %4, align 8, !tbaa !26
  %5 = getelementptr inbounds nuw %"struct.base::WorkingSetKBytes", ptr %3, i32 0, i32 1
  store i64 0, ptr %5, align 8, !tbaa !31
  %6 = getelementptr inbounds nuw %"struct.base::WorkingSetKBytes", ptr %3, i32 0, i32 2
  store i64 0, ptr %6, align 8, !tbaa !28
  ret void
}

; Function Attrs: mustprogress uwtable
define noundef zeroext i1 @_ZN4base14ProcessMetrics14GetMemoryBytesEPmS1_(ptr noundef nonnull align 8 dereferenceable(44) %0, ptr noundef %1, ptr noundef %2) #0 align 2 {
  %4 = alloca i1, align 1
  %5 = alloca ptr, align 8
  %6 = alloca ptr, align 8
  %7 = alloca ptr, align 8
  %8 = alloca %"struct.base::WorkingSetKBytes", align 8
  %9 = alloca i32, align 4
  store ptr %0, ptr %5, align 8, !tbaa !7
  store ptr %1, ptr %6, align 8, !tbaa !24
  store ptr %2, ptr %7, align 8, !tbaa !24
  %10 = load ptr, ptr %5, align 8
  call void @llvm.lifetime.start.p0(i64 24, ptr %8) #18
  call void @_ZN4base16WorkingSetKBytesC2Ev(ptr noundef nonnull align 8 dereferenceable(24) %8)
  %11 = call noundef zeroext i1 @_ZNK4base14ProcessMetrics19GetWorkingSetKBytesEPNS_16WorkingSetKBytesE(ptr noundef nonnull align 8 dereferenceable(44) %10, ptr noundef %8)
  br i1 %11, label %13, label %12

12:                                               ; preds = %3
  store i1 false, ptr %4, align 1
  store i32 1, ptr %9, align 4
  br label %30

13:                                               ; preds = %3
  %14 = load ptr, ptr %6, align 8, !tbaa !24
  %15 = icmp ne ptr %14, null
  br i1 %15, label %16, label %21

16:                                               ; preds = %13
  %17 = getelementptr inbounds nuw %"struct.base::WorkingSetKBytes", ptr %8, i32 0, i32 0
  %18 = load i64, ptr %17, align 8, !tbaa !26
  %19 = mul i64 %18, 1024
  %20 = load ptr, ptr %6, align 8, !tbaa !24
  store i64 %19, ptr %20, align 8, !tbaa !17
  br label %21

21:                                               ; preds = %16, %13
  %22 = load ptr, ptr %7, align 8, !tbaa !24
  %23 = icmp ne ptr %22, null
  br i1 %23, label %24, label %29

24:                                               ; preds = %21
  %25 = getelementptr inbounds nuw %"struct.base::WorkingSetKBytes", ptr %8, i32 0, i32 2
  %26 = load i64, ptr %25, align 8, !tbaa !28
  %27 = mul i64 %26, 1024
  %28 = load ptr, ptr %7, align 8, !tbaa !24
  store i64 %27, ptr %28, align 8, !tbaa !17
  br label %29

29:                                               ; preds = %24, %21
  store i1 true, ptr %4, align 1
  store i32 1, ptr %9, align 4
  br label %30

30:                                               ; preds = %29, %12
  call void @llvm.lifetime.end.p0(i64 24, ptr %8) #18
  %31 = load i1, ptr %4, align 1
  ret i1 %31
}