; Function Attrs: mustprogress uwtable
define noundef zeroext i1 @_ZN4base14ProcessMetrics14GetMemoryBytesEPmS1_(ptr noundef nonnull readonly align 8 captures(none) dereferenceable(44) %0, ptr noundef writeonly captures(address_is_null) %1, ptr noundef writeonly captures(address_is_null) %2) local_unnamed_addr #0 align 2 {
  %4 = alloca %"struct.base::WorkingSetKBytes", align 8
  call void @llvm.lifetime.start.p0(i64 24, ptr nonnull %4) #25
  call void @llvm.memset.p0.i64(ptr noundef nonnull align 8 dereferenceable(24) %4, i8 0, i64 24, i1 false)
  %5 = call noundef zeroext i1 @_ZNK4base14ProcessMetrics24GetWorkingSetKBytesStatmEPNS_16WorkingSetKBytesE(ptr noundef nonnull readonly align 8 dereferenceable(44) %0, ptr noundef nonnull %4)
  br i1 %5, label %6, label %15

6:                                                ; preds = %3
  %.not = icmp eq ptr %1, null
  br i1 %.not, label %10, label %7

7:                                                ; preds = %6
  %8 = load i64, ptr %4, align 8, !tbaa !39
  %9 = shl i64 %8, 10
  store i64 %9, ptr %1, align 8, !tbaa !41
  br label %10

10:                                               ; preds = %7, %6
  %.not8 = icmp eq ptr %2, null
  br i1 %.not8, label %15, label %11

11:                                               ; preds = %10
  %12 = getelementptr inbounds nuw i8, ptr %4, i64 16
  %13 = load i64, ptr %12, align 8, !tbaa !42
  %14 = shl i64 %13, 10
  store i64 %14, ptr %2, align 8, !tbaa !41
  br label %15

15:                                               ; preds = %10, %11, %3
  call void @llvm.lifetime.end.p0(i64 24, ptr nonnull %4) #25
  ret i1 %5
}